(dp0
S'categoria'
p1
(dp2
S'rname'
p3
S'"categoria"'
p4
sS'sortable'
p5
I1
sS'raw_rname'
p6
S'categoria'
p7
sS'notnull'
p8
I01
sS'length'
p9
I512
sS'sql'
p10
S'CHAR(512) NOT NULL'
p11
sS'unique'
p12
I00
sS'type'
p13
S'string'
p14
ssS'id'
p15
(dp16
S'rname'
p17
S'"id"'
p18
sS'sortable'
p19
I1
sS'raw_rname'
p20
S'id'
p21
sS'sql'
p22
S'INTEGER PRIMARY KEY AUTOINCREMENT'
p23
sS'length'
p24
I512
sS'notnull'
p25
I00
sS'unique'
p26
I00
sS'type'
p27
S'id'
p28
ss.